target datalayout = "e-m:e-p270:32:32-p271:32:32-p272:64:64-i64:64-i128:128-f80:128-n8:16:32:64-S128"
target triple = "x86_64-pc-linux-gnu"

%struct.FunctionCallInfoBaseData = type { ptr, ptr, ptr, i32, i8, i16, [0 x %struct.NullableDatum] }
%struct.NullableDatum = type { i64, i8 }
%struct._FuncCandidateList = type { ptr, i32, i32, i32, i32, i32, i32, ptr, [0 x i32] }

@Mode = external global i32, align 4
@.str.1 = private unnamed_addr constant [10 x i8] c"regproc.c\00", align 1
@.str.2 = private unnamed_addr constant [29 x i8] c"function \22%s\22 does not exist\00", align 1
@.str.4 = private unnamed_addr constant [2 x i8] c"-\00", align 1
@.str.6 = private unnamed_addr constant [51 x i8] c"regprocedure values must be OIDs in bootstrap mode\00", align 1
@__func__.regprocedurein = private unnamed_addr constant [15 x i8] c"regprocedurein\00", align 1
@.str.39 = private unnamed_addr constant [11 x i8] c"0123456789\00", align 1

; Function Attrs: inlinehint nounwind uwtable
define internal i32 @DatumGetObjectId(i64 noundef %0) #2 {
  %2 = alloca i64, align 8
  store i64 %0, ptr %2, align 8
  %3 = load i64, ptr %2, align 8
  %4 = trunc i64 %3 to i32
  ret i32 %4
}

; Function Attrs: nounwind uwtable
define internal zeroext i1 @parseNumericOid(ptr noundef %0, ptr noundef %1, ptr noundef %2) #0 {
  %4 = alloca i1, align 1
  %5 = alloca ptr, align 8
  %6 = alloca ptr, align 8
  %7 = alloca ptr, align 8
  %8 = alloca i64, align 8
  store ptr %0, ptr %5, align 8
  store ptr %1, ptr %6, align 8
  store ptr %2, ptr %7, align 8
  %9 = load ptr, ptr %5, align 8
  %10 = getelementptr inbounds i8, ptr %9, i64 0
  %11 = load i8, ptr %10, align 1
  %12 = sext i8 %11 to i32
  %13 = icmp sge i32 %12, 48
  br i1 %13, label %14, label %33

14:                                               ; preds = %3
  %15 = load ptr, ptr %5, align 8
  %16 = getelementptr inbounds i8, ptr %15, i64 0
  %17 = load i8, ptr %16, align 1
  %18 = sext i8 %17 to i32
  %19 = icmp sle i32 %18, 57
  br i1 %19, label %20, label %33

20:                                               ; preds = %14
  %21 = load ptr, ptr %5, align 8
  %22 = call i64 @strspn(ptr noundef %21, ptr noundef @.str.39) #10
  %23 = load ptr, ptr %5, align 8
  %24 = call i64 @strlen(ptr noundef %23) #10
  %25 = icmp eq i64 %22, %24
  br i1 %25, label %26, label %33

26:                                               ; preds = %20
  call void @llvm.lifetime.start.p0(i64 8, ptr %8) #8
  %27 = load ptr, ptr %5, align 8
  %28 = load ptr, ptr %7, align 8
  %29 = call zeroext i1 @DirectInputFunctionCallSafe(ptr noundef @oidin, ptr noundef %27, i32 noundef 0, i32 noundef -1, ptr noundef %28, ptr noundef %8)
  %30 = load i64, ptr %8, align 8
  %31 = call i32 @DatumGetObjectId(i64 noundef %30)
  %32 = load ptr, ptr %6, align 8
  store i32 %31, ptr %32, align 4
  store i1 true, ptr %4, align 1
  call void @llvm.lifetime.end.p0(i64 8, ptr %8) #8
  br label %35

33:                                               ; preds = %20, %14, %3
  %34 = load ptr, ptr %6, align 8
  store i32 0, ptr %34, align 4
  store i1 false, ptr %4, align 1
  br label %35

35:                                               ; preds = %33, %26
  %36 = load i1, ptr %4, align 1
  ret i1 %36
}

; Function Attrs: inlinehint nounwind uwtable
define internal ptr @DatumGetPointer(i64 noundef %0) #2 {
  %2 = alloca i64, align 8
  store i64 %0, ptr %2, align 8
  %3 = load i64, ptr %2, align 8
  %4 = inttoptr i64 %3 to ptr
  ret ptr %4
}

; Function Attrs: inlinehint nounwind uwtable
define internal i64 @ObjectIdGetDatum(i32 noundef %0) #2 {
  %2 = alloca i32, align 4
  store i32 %0, ptr %2, align 4
  %3 = load i32, ptr %2, align 4
  %4 = zext i32 %3 to i64
  ret i64 %4
}

; Function Attrs: nounwind uwtable
define internal zeroext i1 @parseDashOrOid(ptr noundef %0, ptr noundef %1, ptr noundef %2) #0 {
  %4 = alloca i1, align 1
  %5 = alloca ptr, align 8
  %6 = alloca ptr, align 8
  %7 = alloca ptr, align 8
  store ptr %0, ptr %5, align 8
  store ptr %1, ptr %6, align 8
  store ptr %2, ptr %7, align 8
  %8 = load ptr, ptr %5, align 8
  %9 = call i32 @strcmp(ptr noundef %8, ptr noundef @.str.4) #10
  %10 = icmp eq i32 %9, 0
  br i1 %10, label %11, label %13

11:                                               ; preds = %3
  %12 = load ptr, ptr %6, align 8
  store i32 0, ptr %12, align 4
  store i1 true, ptr %4, align 1
  br label %18

13:                                               ; preds = %3
  %14 = load ptr, ptr %5, align 8
  %15 = load ptr, ptr %6, align 8
  %16 = load ptr, ptr %7, align 8
  %17 = call zeroext i1 @parseNumericOid(ptr noundef %14, ptr noundef %15, ptr noundef %16)
  store i1 %17, ptr %4, align 1
  br label %18

18:                                               ; preds = %13, %11
  %19 = load i1, ptr %4, align 1
  ret i1 %19
}

; Function Attrs: inlinehint nounwind uwtable
define internal ptr @DatumGetCString(i64 noundef %0) #2 {
  %2 = alloca i64, align 8
  store i64 %0, ptr %2, align 8
  %3 = load i64, ptr %2, align 8
  %4 = call ptr @DatumGetPointer(i64 noundef %3)
  ret ptr %4
}

; Function Attrs: nounwind uwtable
define dso_local i64 @regprocedurein(ptr noundef %0) #0 {
  %2 = alloca i64, align 8
  %3 = alloca ptr, align 8
  %4 = alloca ptr, align 8
  %5 = alloca ptr, align 8
  %6 = alloca i32, align 4
  %7 = alloca ptr, align 8
  %8 = alloca i32, align 4
  %9 = alloca [100 x i32], align 16
  %10 = alloca ptr, align 8
  %11 = alloca i32, align 4
  %12 = alloca ptr, align 8
  store ptr %0, ptr %3, align 8
  call void @llvm.lifetime.start.p0(i64 8, ptr %4) #8
  %13 = load ptr, ptr %3, align 8
  %14 = getelementptr inbounds nuw %struct.FunctionCallInfoBaseData, ptr %13, i32 0, i32 6
  %15 = getelementptr inbounds [0 x %struct.NullableDatum], ptr %14, i64 0, i64 0
  %16 = getelementptr inbounds nuw %struct.NullableDatum, ptr %15, i32 0, i32 0
  %17 = load i64, ptr %16, align 8
  %18 = call ptr @DatumGetCString(i64 noundef %17)
  store ptr %18, ptr %4, align 8
  call void @llvm.lifetime.start.p0(i64 8, ptr %5) #8
  %19 = load ptr, ptr %3, align 8
  %20 = getelementptr inbounds nuw %struct.FunctionCallInfoBaseData, ptr %19, i32 0, i32 1
  %21 = load ptr, ptr %20, align 8
  store ptr %21, ptr %5, align 8
  call void @llvm.lifetime.start.p0(i64 4, ptr %6) #8
  call void @llvm.lifetime.start.p0(i64 8, ptr %7) #8
  call void @llvm.lifetime.start.p0(i64 4, ptr %8) #8
  call void @llvm.lifetime.start.p0(i64 400, ptr %9) #8
  call void @llvm.lifetime.start.p0(i64 8, ptr %10) #8
  %22 = load ptr, ptr %4, align 8
  %23 = load ptr, ptr %5, align 8
  %24 = call zeroext i1 @parseDashOrOid(ptr noundef %22, ptr noundef %6, ptr noundef %23)
  br i1 %24, label %25, label %28

25:                                               ; preds = %1
  %26 = load i32, ptr %6, align 4
  %27 = call i64 @ObjectIdGetDatum(i32 noundef %26)
  store i64 %27, ptr %2, align 8
  store i32 1, ptr %11, align 4
  br label %101

28:                                               ; preds = %1
  %29 = load i32, ptr @Mode, align 4
  %30 = icmp eq i32 %29, 0
  br i1 %30, label %31, label %42

31:                                               ; preds = %28
  br label %32

32:                                               ; preds = %31
  br i1 true, label %33, label %35

33:                                               ; preds = %32
  %34 = call zeroext i1 @errstart_cold(i32 noundef 21, ptr noundef null) #9
  br i1 %34, label %37, label %39

35:                                               ; preds = %32
  %36 = call zeroext i1 @errstart(i32 noundef 21, ptr noundef null)
  br i1 %36, label %37, label %39

37:                                               ; preds = %35, %33
  %38 = call i32 (ptr, ...) @errmsg_internal(ptr noundef @.str.6)
  call void @errfinish(ptr noundef @.str.1, i32 noundef 240, ptr noundef @__func__.regprocedurein)
  br label %39

39:                                               ; preds = %37, %35, %33
  unreachable

40:                                               ; No predecessors!
  br label %41

41:                                               ; preds = %40
  br label %42

42:                                               ; preds = %41, %28
  %43 = load ptr, ptr %4, align 8
  %44 = getelementptr inbounds [100 x i32], ptr %9, i64 0, i64 0
  %45 = load ptr, ptr %5, align 8
  %46 = call zeroext i1 @parseNameAndArgTypes(ptr noundef %43, i1 noundef zeroext false, ptr noundef %7, ptr noundef %8, ptr noundef %44, ptr noundef %45)
  br i1 %46, label %53, label %47

47:                                               ; preds = %42
  br label %48

48:                                               ; preds = %47
  %49 = load ptr, ptr %3, align 8
  %50 = getelementptr inbounds nuw %struct.FunctionCallInfoBaseData, ptr %49, i32 0, i32 4
  store i8 1, ptr %50, align 4
  store i64 0, ptr %2, align 8
  store i32 1, ptr %11, align 4
  br label %101

51:                                               ; No predecessors!
  br label %52

52:                                               ; preds = %51
  br label %53

53:                                               ; preds = %52, %42
  %54 = load ptr, ptr %7, align 8
  %55 = load i32, ptr %8, align 4
  %56 = call ptr @FuncnameGetCandidates(ptr noundef %54, i32 noundef %55, ptr noundef null, i1 noundef zeroext false, i1 noundef zeroext false, i1 noundef zeroext false, i1 noundef zeroext true)
  store ptr %56, ptr %10, align 8
  br label %57

57:                                               ; preds = %72, %53
  %58 = load ptr, ptr %10, align 8
  %59 = icmp ne ptr %58, null
  br i1 %59, label %60, label %76

60:                                               ; preds = %57
  %61 = load ptr, ptr %10, align 8
  %62 = getelementptr inbounds nuw %struct._FuncCandidateList, ptr %61, i32 0, i32 8
  %63 = getelementptr inbounds [0 x i32], ptr %62, i64 0, i64 0
  %64 = getelementptr inbounds [100 x i32], ptr %9, i64 0, i64 0
  %65 = load i32, ptr %8, align 4
  %66 = sext i32 %65 to i64
  %67 = mul i64 %66, 4
  %68 = call i32 @memcmp(ptr noundef %63, ptr noundef %64, i64 noundef %67) #10
  %69 = icmp eq i32 %68, 0
  br i1 %69, label %70, label %71

70:                                               ; preds = %60
  br label %76

71:                                               ; preds = %60
  br label %72

72:                                               ; preds = %71
  %73 = load ptr, ptr %10, align 8
  %74 = getelementptr inbounds nuw %struct._FuncCandidateList, ptr %73, i32 0, i32 0
  %75 = load ptr, ptr %74, align 8
  store ptr %75, ptr %10, align 8
  br label %57, !llvm.loop !6

76:                                               ; preds = %70, %57
  %77 = load ptr, ptr %10, align 8
  %78 = icmp eq ptr %77, null
  br i1 %78, label %79, label %95

79:                                               ; preds = %76
  br label %80

80:                                               ; preds = %79
  br label %81

81:                                               ; preds = %80
  call void @llvm.lifetime.start.p0(i64 8, ptr %12) #8
  %82 = load ptr, ptr %5, align 8
  store ptr %82, ptr %12, align 8
  %83 = load ptr, ptr %12, align 8
  %84 = call zeroext i1 @errsave_start(ptr noundef %83, ptr noundef null)
  br i1 %84, label %85, label %90

85:                                               ; preds = %81
  %86 = call i32 @errcode(i32 noundef 52461700)
  %87 = load ptr, ptr %4, align 8
  %88 = call i32 (ptr, ...) @errmsg(ptr noundef @.str.2, ptr noundef %87)
  %89 = load ptr, ptr %12, align 8
  call void @errsave_finish(ptr noundef %89, ptr noundef @.str.1, i32 noundef 265, ptr noundef @__func__.regprocedurein)
  br label %90

90:                                               ; preds = %85, %81
  call void @llvm.lifetime.end.p0(i64 8, ptr %12) #8
  br label %91

91:                                               ; preds = %90
  br label %92

92:                                               ; preds = %91
  store i64 0, ptr %2, align 8
  store i32 1, ptr %11, align 4
  br label %101

93:                                               ; No predecessors!
  br label %94

94:                                               ; preds = %93
  br label %95

95:                                               ; preds = %94, %76
  %96 = load ptr, ptr %10, align 8
  %97 = getelementptr inbounds nuw %struct._FuncCandidateList, ptr %96, i32 0, i32 2
  %98 = load i32, ptr %97, align 4
  store i32 %98, ptr %6, align 4
  %99 = load i32, ptr %6, align 4
  %100 = call i64 @ObjectIdGetDatum(i32 noundef %99)
  store i64 %100, ptr %2, align 8
  store i32 1, ptr %11, align 4
  br label %101

101:                                              ; preds = %95, %92, %48, %25
  call void @llvm.lifetime.end.p0(i64 8, ptr %10) #8
  call void @llvm.lifetime.end.p0(i64 400, ptr %9) #8
  call void @llvm.lifetime.end.p0(i64 4, ptr %8) #8
  call void @llvm.lifetime.end.p0(i64 8, ptr %7) #8
  call void @llvm.lifetime.end.p0(i64 4, ptr %6) #8
  call void @llvm.lifetime.end.p0(i64 8, ptr %5) #8
  call void @llvm.lifetime.end.p0(i64 8, ptr %4) #8
  %102 = load i64, ptr %2, align 8
  ret i64 %102
}