; Function Attrs: nounwind uwtable
define dso_local range(i64 0, 4294967296) i64 @regprocedurein(ptr noundef captures(none) %0) #0 {
  %2 = alloca i64, align 8
  %3 = alloca ptr, align 8
  %4 = alloca i32, align 4
  %5 = alloca [100 x i32], align 16
  %6 = getelementptr inbounds nuw i8, ptr %0, i64 32
  %7 = load i64, ptr %6, align 8
  %8 = inttoptr i64 %7 to ptr
  %9 = getelementptr inbounds nuw i8, ptr %0, i64 8
  %10 = load ptr, ptr %9, align 8
  call void @llvm.lifetime.start.p0(i64 8, ptr nonnull %3) #9
  call void @llvm.lifetime.start.p0(i64 4, ptr nonnull %4) #9
  call void @llvm.lifetime.start.p0(i64 400, ptr nonnull %5) #9
  %11 = load i8, ptr %8, align 1
  %.not.i = icmp eq i8 %11, 45
  br i1 %.not.i, label %.tail.i, label %15

.tail.i:                                          ; preds = %1
  %12 = getelementptr inbounds nuw i8, ptr %8, i64 1
  %13 = load i8, ptr %12, align 1
  %14 = icmp eq i8 %13, 0
  br i1 %14, label %53, label %parseDashOrOid.exit

15:                                               ; preds = %1
  %16 = add i8 %11, -48
  %or.cond.i.i = icmp ult i8 %16, 10
  br i1 %or.cond.i.i, label %17, label %parseDashOrOid.exit

17:                                               ; preds = %15
  %18 = tail call i64 @strspn(ptr noundef nonnull %8, ptr noundef nonnull @.str.39) #8
  %19 = tail call i64 @strlen(ptr noundef nonnull dereferenceable(1) %8) #8
  %20 = icmp eq i64 %18, %19
  br i1 %20, label %21, label %parseDashOrOid.exit

21:                                               ; preds = %17
  call void @llvm.lifetime.start.p0(i64 8, ptr nonnull %2) #9
  %22 = call zeroext i1 @DirectInputFunctionCallSafe(ptr noundef nonnull @oidin, ptr noundef nonnull %8, i32 noundef 0, i32 noundef -1, ptr noundef %10, ptr noundef nonnull %2) #9
  %23 = load i64, ptr %2, align 8
  call void @llvm.lifetime.end.p0(i64 8, ptr nonnull %2) #9
  %24 = and i64 %23, 4294967295
  br label %53

parseDashOrOid.exit:                              ; preds = %17, %15, %.tail.i
  %25 = load i32, ptr @Mode, align 4
  %26 = icmp eq i32 %25, 0
  br i1 %26, label %27, label %30

27:                                               ; preds = %parseDashOrOid.exit
  %28 = tail call zeroext i1 @errstart_cold(i32 noundef 21, ptr noundef null) #10
  tail call void @llvm.assume(i1 %28)
  %29 = tail call i32 (ptr, ...) @errmsg_internal(ptr noundef nonnull @.str.6) #9
  tail call void @errfinish(ptr noundef nonnull @.str.1, i32 noundef 240, ptr noundef nonnull @__func__.regprocedurein) #9
  unreachable

30:                                               ; preds = %parseDashOrOid.exit
  %31 = call fastcc zeroext i1 @parseNameAndArgTypes(ptr noundef nonnull %8, i1 noundef zeroext false, ptr noundef %3, ptr noundef %4, ptr noundef %5, ptr noundef %10)
  br i1 %31, label %34, label %32

32:                                               ; preds = %30
  %33 = getelementptr inbounds nuw i8, ptr %0, i64 28
  store i8 1, ptr %33, align 4
  br label %53

34:                                               ; preds = %30
  %35 = load ptr, ptr %3, align 8
  %36 = load i32, ptr %4, align 4
  %37 = tail call ptr @FuncnameGetCandidates(ptr noundef %35, i32 noundef %36, ptr noundef null, i1 noundef zeroext false, i1 noundef zeroext false, i1 noundef zeroext false, i1 noundef zeroext true) #9
  %cond22 = icmp eq ptr %37, null
  br i1 %cond22, label %._crit_edge, label %.lr.ph

.lr.ph:                                           ; preds = %34
  %38 = sext i32 %36 to i64
  %39 = shl nsw i64 %38, 2
  br label %40

40:                                               ; preds = %.lr.ph, %43
  %.01623 = phi ptr [ %37, %.lr.ph ], [ %44, %43 ]
  %41 = getelementptr inbounds nuw i8, ptr %.01623, i64 40
  %bcmp = call i32 @bcmp(ptr nonnull %41, ptr nonnull %5, i64 %39)
  %42 = icmp eq i32 %bcmp, 0
  br i1 %42, label %49, label %43

43:                                               ; preds = %40
  %44 = load ptr, ptr %.01623, align 8
  %cond = icmp eq ptr %44, null
  br i1 %cond, label %._crit_edge, label %40, !llvm.loop !6

._crit_edge:                                      ; preds = %43, %34
  %45 = tail call zeroext i1 @errsave_start(ptr noundef %10, ptr noundef null) #9
  br i1 %45, label %46, label %53

46:                                               ; preds = %._crit_edge
  %47 = tail call i32 @errcode(i32 noundef 52461700) #9
  %48 = tail call i32 (ptr, ...) @errmsg(ptr noundef nonnull @.str.2, ptr noundef nonnull %8) #9
  tail call void @errsave_finish(ptr noundef %10, ptr noundef nonnull @.str.1, i32 noundef 265, ptr noundef nonnull @__func__.regprocedurein) #9
  br label %53

49:                                               ; preds = %40
  %50 = getelementptr inbounds nuw i8, ptr %.01623, i64 12
  %51 = load i32, ptr %50, align 4
  %52 = zext i32 %51 to i64
  br label %53

53:                                               ; preds = %.tail.i, %21, %._crit_edge, %46, %49, %32
  %.0 = phi i64 [ %52, %49 ], [ 0, %32 ], [ 0, %46 ], [ 0, %._crit_edge ], [ 0, %.tail.i ], [ %24, %21 ]
  call void @llvm.lifetime.end.p0(i64 400, ptr nonnull %5) #9
  call void @llvm.lifetime.end.p0(i64 4, ptr nonnull %4) #9
  call void @llvm.lifetime.end.p0(i64 8, ptr nonnull %3) #9
  ret i64 %.0
}